; Function Attrs: nounwind uwtable
define i32 @deccvint(i32 noundef %0, ptr noundef %1) local_unnamed_addr #0 {
  %3 = alloca i32, align 4
  store i32 %0, ptr %3, align 4
  tail call void @ECPGset_noind_null(i32 noundef 17, ptr noundef %1) #16
  %4 = call zeroext i1 @ECPGis_noind_null(i32 noundef 5, ptr noundef nonnull %3) #16
  br i1 %4, label %15, label %5

5:                                                ; preds = %2
  %6 = call ptr @PGTYPESnumeric_new() #16
  %7 = icmp eq ptr %6, null
  br i1 %7, label %15, label %8

8:                                                ; preds = %5
  %9 = load i32, ptr %3, align 4
  %10 = call i32 @PGTYPESnumeric_from_int(i32 noundef %9, ptr noundef nonnull %6) #16
  %11 = icmp eq i32 %10, 0
  br i1 %11, label %12, label %14

12:                                               ; preds = %8
  %13 = call i32 @PGTYPESnumeric_to_decimal(ptr noundef nonnull %6, ptr noundef %1) #16
  br label %14

14:                                               ; preds = %12, %8
  %.0 = phi i32 [ %13, %12 ], [ %10, %8 ]
  call void @PGTYPESnumeric_free(ptr noundef nonnull %6) #16
  br label %15

15:                                               ; preds = %5, %2, %14
  %.08 = phi i32 [ %.0, %14 ], [ 0, %2 ], [ -1211, %5 ]
  ret i32 %.08
}